; Function Attrs: nounwind uwtable
define range(i32 0, 2) i32 @Res_WinFinalizeRoots(ptr noundef readonly captures(none) %0) local_unnamed_addr #2 {
  %2 = load ptr, ptr %0, align 8
  %.val7 = load ptr, ptr %2, align 8
  %3 = getelementptr i8, ptr %2, i64 16
  %.val8 = load i32, ptr %3, align 8
  %4 = getelementptr inbounds nuw i8, ptr %.val7, i64 216
  %5 = load i32, ptr %4, align 8
  %6 = getelementptr inbounds nuw i8, ptr %.val7, i64 224
  %7 = add nsw i32 %.val8, 1
  tail call fastcc void @Vec_IntFillExtra(ptr noundef nonnull %6, i32 noundef %7)
  %8 = getelementptr i8, ptr %.val7, i64 232
  %.val.i.i.i = load ptr, ptr %8, align 8
  %9 = sext i32 %.val8 to i64
  %10 = getelementptr inbounds i32, ptr %.val.i.i.i, i64 %9
  store i32 %5, ptr %10, align 4
  %11 = getelementptr inbounds nuw i8, ptr %0, i64 40
  %12 = load ptr, ptr %11, align 8
  %13 = getelementptr inbounds nuw i8, ptr %12, i64 4
  store i32 0, ptr %13, align 4
  %14 = load ptr, ptr %0, align 8
  %15 = load ptr, ptr %11, align 8
  tail call void @Res_WinFinalizeRoots_rec(ptr noundef %14, ptr noundef %15)
  %16 = load ptr, ptr %11, align 8
  %17 = getelementptr i8, ptr %16, i64 4
  %.val = load i32, ptr %17, align 4
  %18 = icmp eq i32 %.val, 1
  br i1 %18, label %19, label %24

19:                                               ; preds = %1
  %20 = getelementptr i8, ptr %16, i64 8
  %.val9 = load ptr, ptr %20, align 8
  %21 = load ptr, ptr %.val9, align 8
  %22 = load ptr, ptr %0, align 8
  %23 = icmp eq ptr %21, %22
  br i1 %23, label %25, label %24

24:                                               ; preds = %19, %1
  br label %25

25:                                               ; preds = %19, %24
  %.0 = phi i32 [ 1, %24 ], [ 0, %19 ]
  ret i32 %.0
}